target datalayout = "e-m:e-p270:32:32-p271:32:32-p272:64:64-i64:64-i128:128-f80:128-n8:16:32:64-S128"
target triple = "x86_64-pc-linux-gnu"

%"class.Ipopt::SimpleBacksolver" = type <{ %"class.Ipopt::SensBacksolver.base", [7 x i8], %"class.Ipopt::SmartPtr", i8, [7 x i8] }>
%"class.Ipopt::SensBacksolver.base" = type { %"class.Ipopt::AlgorithmStrategyObject.base" }
%"class.Ipopt::AlgorithmStrategyObject.base" = type <{ %"class.Ipopt::ReferencedObject.base", [4 x i8], %"class.Ipopt::SmartPtr.0", %"class.Ipopt::SmartPtr.1", %"class.Ipopt::SmartPtr.2", %"class.Ipopt::SmartPtr.3", i8 }>
%"class.Ipopt::ReferencedObject.base" = type <{ ptr, i32 }>
%"class.Ipopt::SmartPtr.0" = type { ptr }
%"class.Ipopt::SmartPtr.1" = type { ptr }
%"class.Ipopt::SmartPtr.2" = type { ptr }
%"class.Ipopt::SmartPtr.3" = type { ptr }
%"class.Ipopt::SmartPtr" = type { ptr }
%"class.Ipopt::SmartPtr.10" = type { ptr }
%"class.Ipopt::SmartPtr.9" = type { ptr }

; Function Attrs: mustprogress nounwind uwtable
define linkonce_odr noundef nonnull align 8 dereferenceable(280) ptr @_ZNK5Ipopt8SmartPtrINS_14IteratesVectorEEdeEv(ptr noundef nonnull align 8 dereferenceable(8) %0) #5 comdat align 2 {
  %2 = alloca ptr, align 8
  store ptr %0, ptr %2, align 8
  %3 = load ptr, ptr %2, align 8
  %4 = getelementptr inbounds %"class.Ipopt::SmartPtr.9", ptr %3, i32 0, i32 0
  %5 = load ptr, ptr %4, align 8
  ret ptr %5
}

; Function Attrs: mustprogress nounwind uwtable
define linkonce_odr noundef nonnull align 8 dereferenceable(280) ptr @_ZNK5Ipopt8SmartPtrIKNS_14IteratesVectorEEdeEv(ptr noundef nonnull align 8 dereferenceable(8) %0) #5 comdat align 2 {
  %2 = alloca ptr, align 8
  store ptr %0, ptr %2, align 8
  %3 = load ptr, ptr %2, align 8
  %4 = getelementptr inbounds %"class.Ipopt::SmartPtr.10", ptr %3, i32 0, i32 0
  %5 = load ptr, ptr %4, align 8
  ret ptr %5
}

; Function Attrs: mustprogress nounwind uwtable
define linkonce_odr noundef ptr @_ZNK5Ipopt8SmartPtrINS_14PDSystemSolverEEptEv(ptr noundef nonnull align 8 dereferenceable(8) %0) #5 comdat align 2 {
  %2 = alloca ptr, align 8
  store ptr %0, ptr %2, align 8
  %3 = load ptr, ptr %2, align 8
  %4 = getelementptr inbounds %"class.Ipopt::SmartPtr", ptr %3, i32 0, i32 0
  %5 = load ptr, ptr %4, align 8
  ret ptr %5
}

; Function Attrs: mustprogress uwtable
define noundef zeroext i1 @_ZN5Ipopt16SimpleBacksolver5SolveENS_8SmartPtrINS_14IteratesVectorEEENS1_IKS2_EE(ptr noundef nonnull align 8 dereferenceable(65) %0, ptr noundef %1, ptr noundef %2) unnamed_addr #4 align 2 {
  %4 = alloca ptr, align 8
  %5 = alloca ptr, align 8
  %6 = alloca ptr, align 8
  %7 = alloca i8, align 1
  %8 = alloca i8, align 1
  store ptr %0, ptr %4, align 8
  store ptr %1, ptr %5, align 8
  store ptr %2, ptr %6, align 8
  %9 = load ptr, ptr %4, align 8
  store i8 0, ptr %8, align 1
  %10 = getelementptr inbounds %"class.Ipopt::SimpleBacksolver", ptr %9, i32 0, i32 2
  %11 = call noundef ptr @_ZNK5Ipopt8SmartPtrINS_14PDSystemSolverEEptEv(ptr noundef nonnull align 8 dereferenceable(8) %10)
  %12 = call noundef nonnull align 8 dereferenceable(280) ptr @_ZNK5Ipopt8SmartPtrIKNS_14IteratesVectorEEdeEv(ptr noundef nonnull align 8 dereferenceable(8) %2)
  %13 = call noundef nonnull align 8 dereferenceable(280) ptr @_ZNK5Ipopt8SmartPtrINS_14IteratesVectorEEdeEv(ptr noundef nonnull align 8 dereferenceable(8) %1)
  %14 = getelementptr inbounds %"class.Ipopt::SimpleBacksolver", ptr %9, i32 0, i32 3
  %15 = load i8, ptr %14, align 8
  %16 = trunc i8 %15 to i1
  %17 = load i8, ptr %8, align 1
  %18 = trunc i8 %17 to i1
  %19 = load ptr, ptr %11, align 8
  %20 = getelementptr inbounds ptr, ptr %19, i64 3
  %21 = load ptr, ptr %20, align 8
  %22 = call noundef zeroext i1 %21(ptr noundef nonnull align 8 dereferenceable(49) %11, double noundef 1.000000e+00, double noundef 0.000000e+00, ptr noundef nonnull align 8 dereferenceable(280) %12, ptr noundef nonnull align 8 dereferenceable(280) %13, i1 noundef zeroext %16, i1 noundef zeroext %18)
  %23 = zext i1 %22 to i8
  store i8 %23, ptr %7, align 1
  %24 = load i8, ptr %7, align 1
  %25 = trunc i8 %24 to i1
  ret i1 %25
}