; Function Attrs: mustprogress uwtable
define noundef zeroext i1 @_ZN5Ipopt16SimpleBacksolver5SolveENS_8SmartPtrINS_14IteratesVectorEEENS1_IKS2_EE(ptr nocapture noundef nonnull readonly align 8 dereferenceable(65) %0, ptr nocapture noundef readonly %1, ptr nocapture noundef readonly %2) unnamed_addr #3 align 2 {
  %4 = getelementptr inbounds i8, ptr %0, i64 56
  %5 = load ptr, ptr %4, align 8
  %6 = load ptr, ptr %2, align 8
  %7 = load ptr, ptr %1, align 8
  %8 = getelementptr inbounds i8, ptr %0, i64 64
  %9 = load i8, ptr %8, align 8
  %10 = and i8 %9, 1
  %11 = icmp ne i8 %10, 0
  %12 = load ptr, ptr %5, align 8
  %13 = getelementptr inbounds i8, ptr %12, i64 24
  %14 = load ptr, ptr %13, align 8
  %15 = tail call noundef zeroext i1 %14(ptr noundef nonnull align 8 dereferenceable(49) %5, double noundef 1.000000e+00, double noundef 0.000000e+00, ptr noundef nonnull align 8 dereferenceable(280) %6, ptr noundef nonnull align 8 dereferenceable(280) %7, i1 noundef zeroext %11, i1 noundef zeroext false)
  ret i1 %15
}